target datalayout = "e-m:e-p270:32:32-p271:32:32-p272:64:64-i64:64-i128:128-f80:128-n8:16:32:64-S128"
target triple = "x86_64-pc-linux-gnu"

; Function Attrs: mustprogress uwtable
define internal noundef signext i8 @_ZN6icu_77L5streqEPKDsS1_(ptr noundef %0, ptr noundef %1) #2 {
  %3 = alloca i8, align 1
  %4 = alloca ptr, align 8
  %5 = alloca ptr, align 8
  store ptr %0, ptr %4, align 8, !tbaa !16
  store ptr %1, ptr %5, align 8, !tbaa !16
  %6 = load ptr, ptr %5, align 8, !tbaa !16
  %7 = load ptr, ptr %4, align 8, !tbaa !16
  %8 = icmp eq ptr %6, %7
  br i1 %8, label %9, label %10

9:                                                ; preds = %2
  store i8 1, ptr %3, align 1
  br label %23

10:                                               ; preds = %2
  %11 = load ptr, ptr %4, align 8, !tbaa !16
  %12 = icmp ne ptr %11, null
  br i1 %12, label %13, label %22

13:                                               ; preds = %10
  %14 = load ptr, ptr %5, align 8, !tbaa !16
  %15 = icmp ne ptr %14, null
  br i1 %15, label %16, label %22

16:                                               ; preds = %13
  %17 = load ptr, ptr %4, align 8, !tbaa !16
  %18 = load ptr, ptr %5, align 8, !tbaa !16
  %19 = call i32 @u_strcmp_77(ptr noundef %17, ptr noundef %18)
  %20 = icmp eq i32 %19, 0
  %21 = zext i1 %20 to i8
  store i8 %21, ptr %3, align 1
  br label %23

22:                                               ; preds = %13, %10
  store i8 0, ptr %3, align 1
  br label %23

23:                                               ; preds = %22, %16, %9
  %24 = load i8, ptr %3, align 1
  ret i8 %24
}

; Function Attrs: mustprogress uwtable
define noundef zeroext i1 @_ZNK6icu_7716LocalizationInfoeqEPKS0_(ptr noundef nonnull align 8 dereferenceable(12) %0, ptr noundef %1) unnamed_addr #2 align 2 {
  %3 = alloca i1, align 1
  %4 = alloca ptr, align 8
  %5 = alloca ptr, align 8
  %6 = alloca i32, align 4
  %7 = alloca i32, align 4
  %8 = alloca i32, align 4
  %9 = alloca i32, align 4
  %10 = alloca i32, align 4
  %11 = alloca ptr, align 8
  %12 = alloca i32, align 4
  %13 = alloca i32, align 4
  store ptr %0, ptr %4, align 8, !tbaa !8
  store ptr %1, ptr %5, align 8, !tbaa !8
  %14 = load ptr, ptr %4, align 8
  %15 = load ptr, ptr %5, align 8, !tbaa !8
  %16 = icmp ne ptr %15, null
  br i1 %16, label %17, label %147

17:                                               ; preds = %2
  %18 = load ptr, ptr %5, align 8, !tbaa !8
  %19 = icmp eq ptr %14, %18
  br i1 %19, label %20, label %21

20:                                               ; preds = %17
  store i1 true, ptr %3, align 1
  br label %148

21:                                               ; preds = %17
  call void @llvm.lifetime.start.p0(i64 4, ptr %6) #14
  %22 = load ptr, ptr %14, align 8, !tbaa !10
  %23 = getelementptr inbounds ptr, ptr %22, i64 3
  %24 = load ptr, ptr %23, align 8
  %25 = call noundef i32 %24(ptr noundef nonnull align 8 dereferenceable(12) %14)
  store i32 %25, ptr %6, align 4, !tbaa !12
  %26 = load i32, ptr %6, align 4, !tbaa !12
  %27 = load ptr, ptr %5, align 8, !tbaa !8
  %28 = load ptr, ptr %27, align 8, !tbaa !10
  %29 = getelementptr inbounds ptr, ptr %28, i64 3
  %30 = load ptr, ptr %29, align 8
  %31 = call noundef i32 %30(ptr noundef nonnull align 8 dereferenceable(12) %27)
  %32 = icmp eq i32 %26, %31
  br i1 %32, label %33, label %143

33:                                               ; preds = %21
  call void @llvm.lifetime.start.p0(i64 4, ptr %7) #14
  store i32 0, ptr %7, align 4, !tbaa !12
  br label %34

34:                                               ; preds = %55, %33
  %35 = load i32, ptr %7, align 4, !tbaa !12
  %36 = load i32, ptr %6, align 4, !tbaa !12
  %37 = icmp slt i32 %35, %36
  br i1 %37, label %39, label %38

38:                                               ; preds = %34
  store i32 2, ptr %8, align 4
  br label %58

39:                                               ; preds = %34
  %40 = load i32, ptr %7, align 4, !tbaa !12
  %41 = load ptr, ptr %14, align 8, !tbaa !10
  %42 = getelementptr inbounds ptr, ptr %41, i64 4
  %43 = load ptr, ptr %42, align 8
  %44 = call noundef ptr %43(ptr noundef nonnull align 8 dereferenceable(12) %14, i32 noundef %40)
  %45 = load ptr, ptr %5, align 8, !tbaa !8
  %46 = load i32, ptr %7, align 4, !tbaa !12
  %47 = load ptr, ptr %45, align 8, !tbaa !10
  %48 = getelementptr inbounds ptr, ptr %47, i64 4
  %49 = load ptr, ptr %48, align 8
  %50 = call noundef ptr %49(ptr noundef nonnull align 8 dereferenceable(12) %45, i32 noundef %46)
  %51 = call noundef signext i8 @_ZN6icu_77L5streqEPKDsS1_(ptr noundef %44, ptr noundef %50)
  %52 = icmp ne i8 %51, 0
  br i1 %52, label %54, label %53

53:                                               ; preds = %39
  store i1 false, ptr %3, align 1
  store i32 1, ptr %8, align 4
  br label %58

54:                                               ; preds = %39
  br label %55

55:                                               ; preds = %54
  %56 = load i32, ptr %7, align 4, !tbaa !12
  %57 = add nsw i32 %56, 1
  store i32 %57, ptr %7, align 4, !tbaa !12
  br label %34, !llvm.loop !14

58:                                               ; preds = %53, %38
  call void @llvm.lifetime.end.p0(i64 4, ptr %7) #14
  %59 = load i32, ptr %8, align 4
  switch i32 %59, label %144 [
    i32 2, label %60
  ]

60:                                               ; preds = %58
  call void @llvm.lifetime.start.p0(i64 4, ptr %9) #14
  %61 = load ptr, ptr %14, align 8, !tbaa !10
  %62 = getelementptr inbounds ptr, ptr %61, i64 5
  %63 = load ptr, ptr %62, align 8
  %64 = call noundef i32 %63(ptr noundef nonnull align 8 dereferenceable(12) %14)
  store i32 %64, ptr %9, align 4, !tbaa !12
  %65 = load i32, ptr %9, align 4, !tbaa !12
  %66 = load ptr, ptr %5, align 8, !tbaa !8
  %67 = load ptr, ptr %66, align 8, !tbaa !10
  %68 = getelementptr inbounds ptr, ptr %67, i64 5
  %69 = load ptr, ptr %68, align 8
  %70 = call noundef i32 %69(ptr noundef nonnull align 8 dereferenceable(12) %66)
  %71 = icmp eq i32 %65, %70
  br i1 %71, label %72, label %139

72:                                               ; preds = %60
  call void @llvm.lifetime.start.p0(i64 4, ptr %10) #14
  store i32 0, ptr %10, align 4, !tbaa !12
  br label %73

73:                                               ; preds = %133, %72
  %74 = load i32, ptr %10, align 4, !tbaa !12
  %75 = load i32, ptr %9, align 4, !tbaa !12
  %76 = icmp slt i32 %74, %75
  br i1 %76, label %78, label %77

77:                                               ; preds = %73
  store i32 5, ptr %8, align 4
  br label %136

78:                                               ; preds = %73
  call void @llvm.lifetime.start.p0(i64 8, ptr %11) #14
  %79 = load i32, ptr %10, align 4, !tbaa !12
  %80 = load ptr, ptr %14, align 8, !tbaa !10
  %81 = getelementptr inbounds ptr, ptr %80, i64 6
  %82 = load ptr, ptr %81, align 8
  %83 = call noundef ptr %82(ptr noundef nonnull align 8 dereferenceable(12) %14, i32 noundef %79)
  store ptr %83, ptr %11, align 8, !tbaa !16
  call void @llvm.lifetime.start.p0(i64 4, ptr %12) #14
  %84 = load ptr, ptr %5, align 8, !tbaa !8
  %85 = load ptr, ptr %11, align 8, !tbaa !16
  %86 = load ptr, ptr %84, align 8, !tbaa !10
  %87 = getelementptr inbounds ptr, ptr %86, i64 8
  %88 = load ptr, ptr %87, align 8
  %89 = call noundef i32 %88(ptr noundef nonnull align 8 dereferenceable(12) %84, ptr noundef %85)
  store i32 %89, ptr %12, align 4, !tbaa !12
  %90 = load ptr, ptr %11, align 8, !tbaa !16
  %91 = load ptr, ptr %5, align 8, !tbaa !8
  %92 = load i32, ptr %12, align 4, !tbaa !12
  %93 = load ptr, ptr %91, align 8, !tbaa !10
  %94 = getelementptr inbounds ptr, ptr %93, i64 6
  %95 = load ptr, ptr %94, align 8
  %96 = call noundef ptr %95(ptr noundef nonnull align 8 dereferenceable(12) %91, i32 noundef %92)
  %97 = call noundef signext i8 @_ZN6icu_77L5streqEPKDsS1_(ptr noundef %90, ptr noundef %96)
  %98 = icmp ne i8 %97, 0
  br i1 %98, label %100, label %99

99:                                               ; preds = %78
  store i1 false, ptr %3, align 1
  store i32 1, ptr %8, align 4
  br label %130

100:                                              ; preds = %78
  call void @llvm.lifetime.start.p0(i64 4, ptr %13) #14
  store i32 0, ptr %13, align 4, !tbaa !12
  br label %101

101:                                              ; preds = %124, %100
  %102 = load i32, ptr %13, align 4, !tbaa !12
  %103 = load i32, ptr %6, align 4, !tbaa !12
  %104 = icmp slt i32 %102, %103
  br i1 %104, label %106, label %105

105:                                              ; preds = %101
  store i32 8, ptr %8, align 4
  br label %127

106:                                              ; preds = %101
  %107 = load i32, ptr %10, align 4, !tbaa !12
  %108 = load i32, ptr %13, align 4, !tbaa !12
  %109 = load ptr, ptr %14, align 8, !tbaa !10
  %110 = getelementptr inbounds ptr, ptr %109, i64 7
  %111 = load ptr, ptr %110, align 8
  %112 = call noundef ptr %111(ptr noundef nonnull align 8 dereferenceable(12) %14, i32 noundef %107, i32 noundef %108)
  %113 = load ptr, ptr %5, align 8, !tbaa !8
  %114 = load i32, ptr %12, align 4, !tbaa !12
  %115 = load i32, ptr %13, align 4, !tbaa !12
  %116 = load ptr, ptr %113, align 8, !tbaa !10
  %117 = getelementptr inbounds ptr, ptr %116, i64 7
  %118 = load ptr, ptr %117, align 8
  %119 = call noundef ptr %118(ptr noundef nonnull align 8 dereferenceable(12) %113, i32 noundef %114, i32 noundef %115)
  %120 = call noundef signext i8 @_ZN6icu_77L5streqEPKDsS1_(ptr noundef %112, ptr noundef %119)
  %121 = icmp ne i8 %120, 0
  br i1 %121, label %123, label %122

122:                                              ; preds = %106
  store i1 false, ptr %3, align 1
  store i32 1, ptr %8, align 4
  br label %127

123:                                              ; preds = %106
  br label %124

124:                                              ; preds = %123
  %125 = load i32, ptr %13, align 4, !tbaa !12
  %126 = add nsw i32 %125, 1
  store i32 %126, ptr %13, align 4, !tbaa !12
  br label %101, !llvm.loop !18

127:                                              ; preds = %122, %105
  call void @llvm.lifetime.end.p0(i64 4, ptr %13) #14
  %128 = load i32, ptr %8, align 4
  switch i32 %128, label %130 [
    i32 8, label %129
  ]

129:                                              ; preds = %127
  store i32 0, ptr %8, align 4
  br label %130

130:                                              ; preds = %129, %127, %99
  call void @llvm.lifetime.end.p0(i64 4, ptr %12) #14
  call void @llvm.lifetime.end.p0(i64 8, ptr %11) #14
  %131 = load i32, ptr %8, align 4
  switch i32 %131, label %136 [
    i32 0, label %132
  ]

132:                                              ; preds = %130
  br label %133

133:                                              ; preds = %132
  %134 = load i32, ptr %10, align 4, !tbaa !12
  %135 = add nsw i32 %134, 1
  store i32 %135, ptr %10, align 4, !tbaa !12
  br label %73, !llvm.loop !19

136:                                              ; preds = %130, %77
  call void @llvm.lifetime.end.p0(i64 4, ptr %10) #14
  %137 = load i32, ptr %8, align 4
  switch i32 %137, label %140 [
    i32 5, label %138
  ]

138:                                              ; preds = %136
  store i1 true, ptr %3, align 1
  store i32 1, ptr %8, align 4
  br label %140

139:                                              ; preds = %60
  store i32 0, ptr %8, align 4
  br label %140

140:                                              ; preds = %139, %138, %136
  call void @llvm.lifetime.end.p0(i64 4, ptr %9) #14
  %141 = load i32, ptr %8, align 4
  switch i32 %141, label %144 [
    i32 0, label %142
  ]

142:                                              ; preds = %140
  br label %143

143:                                              ; preds = %142, %21
  store i32 0, ptr %8, align 4
  br label %144

144:                                              ; preds = %143, %140, %58
  call void @llvm.lifetime.end.p0(i64 4, ptr %6) #14
  %145 = load i32, ptr %8, align 4
  switch i32 %145, label %150 [
    i32 0, label %146
    i32 1, label %148
  ]

146:                                              ; preds = %144
  br label %147

147:                                              ; preds = %146, %2
  store i1 false, ptr %3, align 1
  br label %148

148:                                              ; preds = %147, %144, %20
  %149 = load i1, ptr %3, align 1
  ret i1 %149

150:                                              ; preds = %144
  unreachable
}