; Function Attrs: mustprogress uwtable
define noundef zeroext i1 @_ZNK6icu_7716LocalizationInfoeqEPKS0_(ptr noundef nonnull align 8 dereferenceable(12) %0, ptr noundef %1) unnamed_addr #3 align 2 {
  %.not = icmp eq ptr %1, null
  br i1 %.not, label %.thread85, label %3

3:                                                ; preds = %2
  %4 = icmp eq ptr %0, %1
  br i1 %4, label %.thread85, label %5

5:                                                ; preds = %3
  %6 = load ptr, ptr %0, align 8, !tbaa !3
  %7 = getelementptr inbounds nuw i8, ptr %6, i64 24
  %8 = load ptr, ptr %7, align 8
  %9 = tail call noundef i32 %8(ptr noundef nonnull align 8 dereferenceable(12) %0)
  %10 = load ptr, ptr %1, align 8, !tbaa !3
  %11 = getelementptr inbounds nuw i8, ptr %10, i64 24
  %12 = load ptr, ptr %11, align 8
  %13 = tail call noundef i32 %12(ptr noundef nonnull align 8 dereferenceable(12) %1)
  %14 = icmp eq i32 %9, %13
  br i1 %14, label %.preheader104, label %.thread85

.preheader104:                                    ; preds = %5
  %.not54106 = icmp sgt i32 %9, 0
  br i1 %.not54106, label %.lr.ph, label %.critedge

.lr.ph:                                           ; preds = %.preheader104, %_ZN6icu_77L5streqEPKDsS1_.exit.thread68
  %.041107 = phi i32 [ %28, %_ZN6icu_77L5streqEPKDsS1_.exit.thread68 ], [ 0, %.preheader104 ]
  %15 = load ptr, ptr %0, align 8, !tbaa !3
  %16 = getelementptr inbounds nuw i8, ptr %15, i64 32
  %17 = load ptr, ptr %16, align 8
  %18 = tail call noundef ptr %17(ptr noundef nonnull align 8 dereferenceable(12) %0, i32 noundef %.041107)
  %19 = load ptr, ptr %1, align 8, !tbaa !3
  %20 = getelementptr inbounds nuw i8, ptr %19, i64 32
  %21 = load ptr, ptr %20, align 8
  %22 = tail call noundef ptr %21(ptr noundef nonnull align 8 dereferenceable(12) %1, i32 noundef %.041107)
  %23 = icmp eq ptr %22, %18
  br i1 %23, label %_ZN6icu_77L5streqEPKDsS1_.exit.thread68, label %24

24:                                               ; preds = %.lr.ph
  %25 = icmp ne ptr %18, null
  %26 = icmp ne ptr %22, null
  %or.cond.i = and i1 %25, %26
  br i1 %or.cond.i, label %_ZN6icu_77L5streqEPKDsS1_.exit, label %.thread85

_ZN6icu_77L5streqEPKDsS1_.exit:                   ; preds = %24
  %27 = tail call i32 @u_strcmp_77(ptr noundef nonnull %18, ptr noundef nonnull %22)
  %.not101 = icmp eq i32 %27, 0
  br i1 %.not101, label %_ZN6icu_77L5streqEPKDsS1_.exit.thread68, label %.thread85

_ZN6icu_77L5streqEPKDsS1_.exit.thread68:          ; preds = %.lr.ph, %_ZN6icu_77L5streqEPKDsS1_.exit
  %28 = add nuw nsw i32 %.041107, 1
  %exitcond.not = icmp eq i32 %28, %9
  br i1 %exitcond.not, label %.critedge, label %.lr.ph, !llvm.loop !6

.critedge:                                        ; preds = %_ZN6icu_77L5streqEPKDsS1_.exit.thread68, %.preheader104
  %29 = load ptr, ptr %0, align 8, !tbaa !3
  %30 = getelementptr inbounds nuw i8, ptr %29, i64 40
  %31 = load ptr, ptr %30, align 8
  %32 = tail call noundef i32 %31(ptr noundef nonnull align 8 dereferenceable(12) %0)
  %33 = load ptr, ptr %1, align 8, !tbaa !3
  %34 = getelementptr inbounds nuw i8, ptr %33, i64 40
  %35 = load ptr, ptr %34, align 8
  %36 = tail call noundef i32 %35(ptr noundef nonnull align 8 dereferenceable(12) %1)
  %37 = icmp eq i32 %32, %36
  br i1 %37, label %.preheader, label %.thread85

.preheader:                                       ; preds = %.critedge
  %38 = icmp sgt i32 %32, 0
  br i1 %38, label %.lr.ph112, label %.thread85

.lr.ph112:                                        ; preds = %.preheader
  br i1 %.not54106, label %.lr.ph112.split.us, label %.lr.ph112.split

.lr.ph112.split.us:                               ; preds = %.lr.ph112, %.critedge102._crit_edge.us
  %.042111.us = phi i32 [ %70, %.critedge102._crit_edge.us ], [ 0, %.lr.ph112 ]
  %39 = load ptr, ptr %0, align 8, !tbaa !3
  %40 = getelementptr inbounds nuw i8, ptr %39, i64 48
  %41 = load ptr, ptr %40, align 8
  %42 = tail call noundef ptr %41(ptr noundef nonnull align 8 dereferenceable(12) %0, i32 noundef %.042111.us)
  %43 = load ptr, ptr %1, align 8, !tbaa !3
  %44 = getelementptr inbounds nuw i8, ptr %43, i64 64
  %45 = load ptr, ptr %44, align 8
  %46 = tail call noundef i32 %45(ptr noundef nonnull align 8 dereferenceable(12) %1, ptr noundef %42)
  %47 = load ptr, ptr %1, align 8, !tbaa !3
  %48 = getelementptr inbounds nuw i8, ptr %47, i64 48
  %49 = load ptr, ptr %48, align 8
  %50 = tail call noundef ptr %49(ptr noundef nonnull align 8 dereferenceable(12) %1, i32 noundef %46)
  %51 = icmp eq ptr %50, %42
  br i1 %51, label %.critedge102.preheader.us.preheader, label %52

52:                                               ; preds = %.lr.ph112.split.us
  %53 = icmp ne ptr %42, null
  %54 = icmp ne ptr %50, null
  %or.cond.i60.us = and i1 %53, %54
  br i1 %or.cond.i60.us, label %_ZN6icu_77L5streqEPKDsS1_.exit62.us, label %.thread85

_ZN6icu_77L5streqEPKDsS1_.exit62.us:              ; preds = %52
  %55 = tail call i32 @u_strcmp_77(ptr noundef nonnull %42, ptr noundef nonnull %50)
  %.not119 = icmp eq i32 %55, 0
  br i1 %.not119, label %.critedge102.preheader.us.preheader, label %.thread85

.critedge102.preheader.us.preheader:              ; preds = %_ZN6icu_77L5streqEPKDsS1_.exit62.us, %.lr.ph112.split.us
  br label %.critedge102.preheader.us

.critedge102.preheader.us:                        ; preds = %.critedge102.preheader.us.preheader, %_ZN6icu_77L5streqEPKDsS1_.exit65.thread75.us
  %.0109.us = phi i32 [ %69, %_ZN6icu_77L5streqEPKDsS1_.exit65.thread75.us ], [ 0, %.critedge102.preheader.us.preheader ]
  %56 = load ptr, ptr %0, align 8, !tbaa !3
  %57 = getelementptr inbounds nuw i8, ptr %56, i64 56
  %58 = load ptr, ptr %57, align 8
  %59 = tail call noundef ptr %58(ptr noundef nonnull align 8 dereferenceable(12) %0, i32 noundef %.042111.us, i32 noundef %.0109.us)
  %60 = load ptr, ptr %1, align 8, !tbaa !3
  %61 = getelementptr inbounds nuw i8, ptr %60, i64 56
  %62 = load ptr, ptr %61, align 8
  %63 = tail call noundef ptr %62(ptr noundef nonnull align 8 dereferenceable(12) %1, i32 noundef %46, i32 noundef %.0109.us)
  %64 = icmp eq ptr %63, %59
  br i1 %64, label %_ZN6icu_77L5streqEPKDsS1_.exit65.thread75.us, label %65

65:                                               ; preds = %.critedge102.preheader.us
  %66 = icmp ne ptr %59, null
  %67 = icmp ne ptr %63, null
  %or.cond.i63.us = and i1 %66, %67
  br i1 %or.cond.i63.us, label %_ZN6icu_77L5streqEPKDsS1_.exit65.us, label %.thread85

_ZN6icu_77L5streqEPKDsS1_.exit65.us:              ; preds = %65
  %68 = tail call i32 @u_strcmp_77(ptr noundef nonnull %59, ptr noundef nonnull %63)
  %.not100.us = icmp eq i32 %68, 0
  br i1 %.not100.us, label %_ZN6icu_77L5streqEPKDsS1_.exit65.thread75.us, label %.thread85

_ZN6icu_77L5streqEPKDsS1_.exit65.thread75.us:     ; preds = %_ZN6icu_77L5streqEPKDsS1_.exit65.us, %.critedge102.preheader.us
  %69 = add nuw nsw i32 %.0109.us, 1
  %exitcond125.not = icmp eq i32 %69, %9
  br i1 %exitcond125.not, label %.critedge102._crit_edge.us, label %.critedge102.preheader.us, !llvm.loop !8

.critedge102._crit_edge.us:                       ; preds = %_ZN6icu_77L5streqEPKDsS1_.exit65.thread75.us
  %70 = add nuw nsw i32 %.042111.us, 1
  %exitcond126.not = icmp eq i32 %70, %32
  br i1 %exitcond126.not, label %.thread85, label %.lr.ph112.split.us, !llvm.loop !9

.lr.ph112.split:                                  ; preds = %.lr.ph112, %.critedge102.preheader
  %.042111 = phi i32 [ %88, %.critedge102.preheader ], [ 0, %.lr.ph112 ]
  %71 = load ptr, ptr %0, align 8, !tbaa !3
  %72 = getelementptr inbounds nuw i8, ptr %71, i64 48
  %73 = load ptr, ptr %72, align 8
  %74 = tail call noundef ptr %73(ptr noundef nonnull align 8 dereferenceable(12) %0, i32 noundef %.042111)
  %75 = load ptr, ptr %1, align 8, !tbaa !3
  %76 = getelementptr inbounds nuw i8, ptr %75, i64 64
  %77 = load ptr, ptr %76, align 8
  %78 = tail call noundef i32 %77(ptr noundef nonnull align 8 dereferenceable(12) %1, ptr noundef %74)
  %79 = load ptr, ptr %1, align 8, !tbaa !3
  %80 = getelementptr inbounds nuw i8, ptr %79, i64 48
  %81 = load ptr, ptr %80, align 8
  %82 = tail call noundef ptr %81(ptr noundef nonnull align 8 dereferenceable(12) %1, i32 noundef %78)
  %83 = icmp eq ptr %82, %74
  br i1 %83, label %.critedge102.preheader, label %84

84:                                               ; preds = %.lr.ph112.split
  %85 = icmp ne ptr %74, null
  %86 = icmp ne ptr %82, null
  %or.cond.i60 = and i1 %85, %86
  br i1 %or.cond.i60, label %_ZN6icu_77L5streqEPKDsS1_.exit62, label %.thread85

_ZN6icu_77L5streqEPKDsS1_.exit62:                 ; preds = %84
  %87 = tail call i32 @u_strcmp_77(ptr noundef nonnull %74, ptr noundef nonnull %82)
  %.not118 = icmp eq i32 %87, 0
  br i1 %.not118, label %.critedge102.preheader, label %.thread85

.critedge102.preheader:                           ; preds = %_ZN6icu_77L5streqEPKDsS1_.exit62, %.lr.ph112.split
  %88 = add nuw nsw i32 %.042111, 1
  %exitcond124.not = icmp eq i32 %88, %32
  br i1 %exitcond124.not, label %.thread85, label %.lr.ph112.split, !llvm.loop !9

.thread85:                                        ; preds = %24, %_ZN6icu_77L5streqEPKDsS1_.exit, %.critedge102.preheader, %84, %_ZN6icu_77L5streqEPKDsS1_.exit62, %.critedge102._crit_edge.us, %52, %_ZN6icu_77L5streqEPKDsS1_.exit62.us, %_ZN6icu_77L5streqEPKDsS1_.exit65.us, %65, %.preheader, %.critedge, %5, %2, %3
  %.040 = phi i1 [ true, %3 ], [ false, %2 ], [ false, %5 ], [ false, %.critedge ], [ true, %.preheader ], [ false, %65 ], [ false, %_ZN6icu_77L5streqEPKDsS1_.exit65.us ], [ true, %.critedge102._crit_edge.us ], [ false, %52 ], [ false, %_ZN6icu_77L5streqEPKDsS1_.exit62.us ], [ true, %.critedge102.preheader ], [ false, %84 ], [ false, %_ZN6icu_77L5streqEPKDsS1_.exit62 ], [ false, %_ZN6icu_77L5streqEPKDsS1_.exit ], [ false, %24 ]
  ret i1 %.040
}